target datalayout = "e-m:e-p270:32:32-p271:32:32-p272:64:64-i64:64-i128:128-f80:128-n8:16:32:64-S128"
target triple = "x86_64-pc-linux-gnu"

%struct.rb_data_type_struct = type { ptr, %struct.anon.2, ptr, ptr, i64 }
%struct.anon.2 = type { ptr, ptr, ptr, ptr, [1 x ptr] }
%struct.zstream = type { i64, i64, i64, i64, %struct.z_stream_s, ptr }
%struct.z_stream_s = type { ptr, i32, i64, ptr, i32, i64, ptr, ptr, ptr, ptr, ptr, i32, i64, i64 }
%struct.RString = type { %struct.RBasic, i64, %union.anon }
%struct.RBasic = type { i64, i64 }
%union.anon = type { %struct.anon }
%struct.anon = type { ptr, %union.anon.0 }
%union.anon.0 = type { i64 }

@cZError = internal global i64 0, align 8
@zstream_data_type = internal constant %struct.rb_data_type_struct { ptr @.str.147, %struct.anon.2 { ptr @zstream_mark, ptr @zstream_free, ptr @zstream_memsize, ptr null, [1 x ptr] zeroinitializer }, ptr null, ptr null, i64 1 }, align 8
@.str.150 = private unnamed_addr constant [20 x i8] c"stream is not ready\00", align 1
@.str.159 = private unnamed_addr constant [37 x i8] c"deflateParams() returned Z_BUF_ERROR\00", align 1

; Function Attrs: inlinehint nounwind sspstrong willreturn memory(read) uwtable
define internal i64 @RSTRING_LEN(i64 noundef %0) #6 {
  %2 = alloca i64, align 8
  store i64 %0, ptr %2, align 8, !tbaa !6
  %3 = load i64, ptr %2, align 8, !tbaa !6
  %4 = inttoptr i64 %3 to ptr
  %5 = getelementptr inbounds nuw %struct.RString, ptr %4, i32 0, i32 1
  %6 = load i64, ptr %5, align 8, !tbaa !88
  ret i64 %6
}

; Function Attrs: inlinehint nounwind sspstrong uwtable
define internal i32 @RB_FIX2INT(i64 noundef %0) #3 {
  %2 = alloca i64, align 8
  %3 = alloca i64, align 8
  store i64 %0, ptr %2, align 8, !tbaa !6
  call void @llvm.lifetime.start.p0(i64 8, ptr %3) #23
  %4 = load i64, ptr %2, align 8, !tbaa !6
  %5 = call i64 @rb_fix2int(i64 noundef %4)
  store i64 %5, ptr %3, align 8, !tbaa !6
  %6 = load i64, ptr %3, align 8, !tbaa !6
  %7 = trunc i64 %6 to i32
  call void @llvm.lifetime.end.p0(i64 8, ptr %3) #23
  ret i32 %7
}

; Function Attrs: inlinehint nounwind sspstrong willreturn memory(none) uwtable
define internal zeroext i1 @RB_NIL_P(i64 noundef %0) #5 {
  %2 = alloca i64, align 8
  store i64 %0, ptr %2, align 8, !tbaa !6
  %3 = load i64, ptr %2, align 8, !tbaa !6
  %4 = icmp eq i64 %3, 4
  ret i1 %4
}

; Function Attrs: nounwind sspstrong uwtable
define internal ptr @get_zstream(i64 noundef %0) #0 {
  %2 = alloca i64, align 8
  %3 = alloca ptr, align 8
  store i64 %0, ptr %2, align 8, !tbaa !6
  call void @llvm.lifetime.start.p0(i64 8, ptr %3) #23
  %4 = load i64, ptr %2, align 8, !tbaa !6
  %5 = call ptr @rb_check_typeddata(i64 noundef %4, ptr noundef @zstream_data_type)
  store ptr %5, ptr %3, align 8, !tbaa !21
  %6 = load ptr, ptr %3, align 8, !tbaa !21
  %7 = getelementptr inbounds nuw %struct.zstream, ptr %6, i32 0, i32 0
  %8 = load i64, ptr %7, align 8, !tbaa !33
  %9 = and i64 %8, 1
  %10 = icmp ne i64 %9, 0
  br i1 %10, label %13, label %11

11:                                               ; preds = %1
  %12 = load i64, ptr @cZError, align 8, !tbaa !6
  call void (i64, ptr, ...) @rb_raise(i64 noundef %12, ptr noundef @.str.150) #26
  unreachable

13:                                               ; preds = %1
  %14 = load ptr, ptr %3, align 8, !tbaa !21
  call void @llvm.lifetime.end.p0(i64 8, ptr %3) #23
  ret ptr %14
}

; Function Attrs: nounwind sspstrong uwtable
define internal i64 @rb_deflate_params(i64 noundef %0, i64 noundef %1, i64 noundef %2) #0 {
  %4 = alloca i64, align 8
  %5 = alloca i64, align 8
  %6 = alloca i64, align 8
  %7 = alloca ptr, align 8
  %8 = alloca i32, align 4
  %9 = alloca i32, align 4
  %10 = alloca i32, align 4
  %11 = alloca i32, align 4
  %12 = alloca i64, align 8
  store i64 %0, ptr %4, align 8, !tbaa !6
  store i64 %1, ptr %5, align 8, !tbaa !6
  store i64 %2, ptr %6, align 8, !tbaa !6
  call void @llvm.lifetime.start.p0(i64 8, ptr %7) #23
  %13 = load i64, ptr %4, align 8, !tbaa !6
  %14 = call ptr @get_zstream(i64 noundef %13)
  store ptr %14, ptr %7, align 8, !tbaa !21
  call void @llvm.lifetime.start.p0(i64 4, ptr %8) #23
  call void @llvm.lifetime.start.p0(i64 4, ptr %9) #23
  call void @llvm.lifetime.start.p0(i64 4, ptr %10) #23
  call void @llvm.lifetime.start.p0(i64 4, ptr %11) #23
  call void @llvm.lifetime.start.p0(i64 8, ptr %12) #23
  %15 = load i64, ptr %5, align 8, !tbaa !6
  %16 = call zeroext i1 @RB_NIL_P(i64 noundef %15) #24
  br i1 %16, label %17, label %18

17:                                               ; preds = %3
  br label %21

18:                                               ; preds = %3
  %19 = load i64, ptr %5, align 8, !tbaa !6
  %20 = call i32 @RB_FIX2INT(i64 noundef %19)
  br label %21

21:                                               ; preds = %18, %17
  %22 = phi i32 [ -1, %17 ], [ %20, %18 ]
  store i32 %22, ptr %8, align 4, !tbaa !10
  %23 = load i64, ptr %6, align 8, !tbaa !6
  %24 = call zeroext i1 @RB_NIL_P(i64 noundef %23) #24
  br i1 %24, label %25, label %26

25:                                               ; preds = %21
  br label %29

26:                                               ; preds = %21
  %27 = load i64, ptr %6, align 8, !tbaa !6
  %28 = call i32 @RB_FIX2INT(i64 noundef %27)
  br label %29

29:                                               ; preds = %26, %25
  %30 = phi i32 [ 0, %25 ], [ %28, %26 ]
  store i32 %30, ptr %9, align 4, !tbaa !10
  %31 = load ptr, ptr %7, align 8, !tbaa !21
  %32 = getelementptr inbounds nuw %struct.zstream, ptr %31, i32 0, i32 4
  %33 = getelementptr inbounds nuw %struct.z_stream_s, ptr %32, i32 0, i32 4
  %34 = load i32, ptr %33, align 8, !tbaa !23
  store i32 %34, ptr %11, align 4, !tbaa !10
  %35 = load ptr, ptr %7, align 8, !tbaa !21
  %36 = getelementptr inbounds nuw %struct.zstream, ptr %35, i32 0, i32 4
  %37 = load i32, ptr %8, align 4, !tbaa !10
  %38 = load i32, ptr %9, align 4, !tbaa !10
  %39 = call i32 @deflateParams(ptr noundef %36, i32 noundef %37, i32 noundef %38)
  store i32 %39, ptr %10, align 4, !tbaa !10
  %40 = load i32, ptr %11, align 4, !tbaa !10
  %41 = load ptr, ptr %7, align 8, !tbaa !21
  %42 = getelementptr inbounds nuw %struct.zstream, ptr %41, i32 0, i32 4
  %43 = getelementptr inbounds nuw %struct.z_stream_s, ptr %42, i32 0, i32 4
  %44 = load i32, ptr %43, align 8, !tbaa !23
  %45 = sub i32 %40, %44
  %46 = zext i32 %45 to i64
  store i64 %46, ptr %12, align 8, !tbaa !6
  br label %47

47:                                               ; preds = %50, %29
  %48 = load i32, ptr %10, align 4, !tbaa !10
  %49 = icmp eq i32 %48, -5
  br i1 %49, label %50, label %77

50:                                               ; preds = %47
  call void (ptr, ...) @rb_warning(ptr noundef @.str.159)
  %51 = load ptr, ptr %7, align 8, !tbaa !21
  call void @zstream_expand_buffer(ptr noundef %51)
  %52 = load ptr, ptr %7, align 8, !tbaa !21
  %53 = getelementptr inbounds nuw %struct.zstream, ptr %52, i32 0, i32 1
  %54 = load i64, ptr %53, align 8, !tbaa !35
  %55 = load ptr, ptr %7, align 8, !tbaa !21
  %56 = getelementptr inbounds nuw %struct.zstream, ptr %55, i32 0, i32 1
  %57 = load i64, ptr %56, align 8, !tbaa !35
  %58 = call i64 @RSTRING_LEN(i64 noundef %57) #25
  %59 = load i64, ptr %12, align 8, !tbaa !6
  %60 = add nsw i64 %58, %59
  call void @rb_str_set_len(i64 noundef %54, i64 noundef %60)
  %61 = load ptr, ptr %7, align 8, !tbaa !21
  %62 = getelementptr inbounds nuw %struct.zstream, ptr %61, i32 0, i32 4
  %63 = getelementptr inbounds nuw %struct.z_stream_s, ptr %62, i32 0, i32 4
  %64 = load i32, ptr %63, align 8, !tbaa !23
  store i32 %64, ptr %11, align 4, !tbaa !10
  %65 = load ptr, ptr %7, align 8, !tbaa !21
  %66 = getelementptr inbounds nuw %struct.zstream, ptr %65, i32 0, i32 4
  %67 = load i32, ptr %8, align 4, !tbaa !10
  %68 = load i32, ptr %9, align 4, !tbaa !10
  %69 = call i32 @deflateParams(ptr noundef %66, i32 noundef %67, i32 noundef %68)
  store i32 %69, ptr %10, align 4, !tbaa !10
  %70 = load i32, ptr %11, align 4, !tbaa !10
  %71 = load ptr, ptr %7, align 8, !tbaa !21
  %72 = getelementptr inbounds nuw %struct.zstream, ptr %71, i32 0, i32 4
  %73 = getelementptr inbounds nuw %struct.z_stream_s, ptr %72, i32 0, i32 4
  %74 = load i32, ptr %73, align 8, !tbaa !23
  %75 = sub i32 %70, %74
  %76 = zext i32 %75 to i64
  store i64 %76, ptr %12, align 8, !tbaa !6
  br label %47, !llvm.loop !41

77:                                               ; preds = %47
  %78 = load i32, ptr %10, align 4, !tbaa !10
  %79 = icmp ne i32 %78, 0
  br i1 %79, label %80, label %86

80:                                               ; preds = %77
  %81 = load i32, ptr %10, align 4, !tbaa !10
  %82 = load ptr, ptr %7, align 8, !tbaa !21
  %83 = getelementptr inbounds nuw %struct.zstream, ptr %82, i32 0, i32 4
  %84 = getelementptr inbounds nuw %struct.z_stream_s, ptr %83, i32 0, i32 6
  %85 = load ptr, ptr %84, align 8, !tbaa !34
  call void @raise_zlib_error(i32 noundef %81, ptr noundef %85) #26
  unreachable

86:                                               ; preds = %77
  %87 = load ptr, ptr %7, align 8, !tbaa !21
  %88 = getelementptr inbounds nuw %struct.zstream, ptr %87, i32 0, i32 1
  %89 = load i64, ptr %88, align 8, !tbaa !35
  %90 = load ptr, ptr %7, align 8, !tbaa !21
  %91 = getelementptr inbounds nuw %struct.zstream, ptr %90, i32 0, i32 1
  %92 = load i64, ptr %91, align 8, !tbaa !35
  %93 = call i64 @RSTRING_LEN(i64 noundef %92) #25
  %94 = load i64, ptr %12, align 8, !tbaa !6
  %95 = add nsw i64 %93, %94
  call void @rb_str_set_len(i64 noundef %89, i64 noundef %95)
  call void @llvm.lifetime.end.p0(i64 8, ptr %12) #23
  call void @llvm.lifetime.end.p0(i64 4, ptr %11) #23
  call void @llvm.lifetime.end.p0(i64 4, ptr %10) #23
  call void @llvm.lifetime.end.p0(i64 4, ptr %9) #23
  call void @llvm.lifetime.end.p0(i64 4, ptr %8) #23
  call void @llvm.lifetime.end.p0(i64 8, ptr %7) #23
  ret i64 4
}