; Function Attrs: nounwind sspstrong uwtable
define internal noundef i64 @rb_deflate_params(i64 noundef %0, i64 noundef %1, i64 noundef %2) #0 {
  %4 = tail call ptr @rb_check_typeddata(i64 noundef %0, ptr noundef nonnull @zstream_data_type) #18
  %5 = load i64, ptr %4, align 8, !tbaa !42
  %6 = and i64 %5, 1
  %.not.i = icmp eq i64 %6, 0
  br i1 %.not.i, label %7, label %get_zstream.exit

7:                                                ; preds = %3
  %8 = load i64, ptr @cZError, align 8, !tbaa !6
  tail call void (i64, ptr, ...) @rb_raise(i64 noundef %8, ptr noundef nonnull @.str.150) #19
  unreachable

get_zstream.exit:                                 ; preds = %3
  %9 = icmp eq i64 %1, 4
  br i1 %9, label %13, label %10

10:                                               ; preds = %get_zstream.exit
  %11 = tail call i64 @rb_fix2int(i64 noundef %1) #18
  %12 = trunc i64 %11 to i32
  br label %13

13:                                               ; preds = %get_zstream.exit, %10
  %14 = phi i32 [ %12, %10 ], [ -1, %get_zstream.exit ]
  %15 = icmp eq i64 %2, 4
  br i1 %15, label %19, label %16

16:                                               ; preds = %13
  %17 = tail call i64 @rb_fix2int(i64 noundef %2) #18
  %18 = trunc i64 %17 to i32
  br label %19

19:                                               ; preds = %13, %16
  %20 = phi i32 [ %18, %16 ], [ 0, %13 ]
  %21 = getelementptr inbounds nuw i8, ptr %4, i64 32
  %22 = getelementptr inbounds nuw i8, ptr %4, i64 64
  %23 = load i32, ptr %22, align 8, !tbaa !36
  %24 = tail call i32 @deflateParams(ptr noundef nonnull %21, i32 noundef %14, i32 noundef %20) #18
  %25 = load i32, ptr %22, align 8, !tbaa !36
  %26 = sub i32 %23, %25
  %27 = getelementptr inbounds nuw i8, ptr %4, i64 8
  br label %28

28:                                               ; preds = %29, %19
  %.027 = phi i32 [ %24, %19 ], [ %36, %29 ]
  %.0.in = phi i32 [ %26, %19 ], [ %38, %29 ]
  %.0 = zext i32 %.0.in to i64
  switch i32 %.027, label %39 [
    i32 -5, label %29
    i32 0, label %42
  ]

29:                                               ; preds = %28
  tail call void (ptr, ...) @rb_warning(ptr noundef nonnull @.str.159) #18
  tail call void @zstream_expand_buffer(ptr noundef nonnull %4)
  %30 = load i64, ptr %27, align 8, !tbaa !43
  %31 = inttoptr i64 %30 to ptr
  %32 = getelementptr inbounds nuw i8, ptr %31, i64 16
  %33 = load i64, ptr %32, align 8, !tbaa !21
  %34 = add nsw i64 %33, %.0
  tail call void @rb_str_set_len(i64 noundef %30, i64 noundef %34) #18
  %35 = load i32, ptr %22, align 8, !tbaa !36
  %36 = tail call i32 @deflateParams(ptr noundef nonnull %21, i32 noundef %14, i32 noundef %20) #18
  %37 = load i32, ptr %22, align 8, !tbaa !36
  %38 = sub i32 %35, %37
  br label %28, !llvm.loop !84

39:                                               ; preds = %28
  %40 = getelementptr inbounds nuw i8, ptr %4, i64 80
  %41 = load ptr, ptr %40, align 8, !tbaa !59
  tail call fastcc void @raise_zlib_error(i32 noundef %.027, ptr noundef %41) #20
  unreachable

42:                                               ; preds = %28
  %43 = load i64, ptr %27, align 8, !tbaa !43
  %44 = inttoptr i64 %43 to ptr
  %45 = getelementptr inbounds nuw i8, ptr %44, i64 16
  %46 = load i64, ptr %45, align 8, !tbaa !21
  %47 = add nsw i64 %46, %.0
  tail call void @rb_str_set_len(i64 noundef %43, i64 noundef %47) #18
  ret i64 4
}